; Function Attrs: nounwind uwtable
define nonnull ptr @l___private_Std_Internal_Parsec_ByteArray_0__Std_Internal_Parsec_ByteArray_digitToNat___boxed(ptr noundef %0) local_unnamed_addr #0 {
  %2 = ptrtoint ptr %0 to i64
  %3 = and i64 %2, 1
  %.not = icmp eq i64 %3, 0
  br i1 %.not, label %4, label %lean_dec.exit

4:                                                ; preds = %1
  %5 = load i32, ptr %0, align 4, !tbaa !8
  %6 = icmp sgt i32 %5, 1
  br i1 %6, label %7, label %9, !prof !11

7:                                                ; preds = %4
  %8 = add nsw i32 %5, -1
  store i32 %8, ptr %0, align 4, !tbaa !8
  br label %lean_dec.exit

9:                                                ; preds = %4
  %.not.i = icmp eq i32 %5, 0
  br i1 %.not.i, label %lean_dec.exit, label %10

10:                                               ; preds = %9
  tail call void @lean_dec_ref_cold(ptr noundef nonnull %0) #6
  br label %lean_dec.exit

lean_dec.exit:                                    ; preds = %10, %9, %7, %1
  %.b = load i1, ptr @l_Std_Internal_Parsec_ByteArray_digit___closed__1, align 1
  %.neg = select i1 %.b, i64 416, i64 0
  %11 = add i64 %.neg, %2
  %12 = and i64 %11, 510
  %13 = or disjoint i64 %12, 1
  %14 = inttoptr i64 %13 to ptr
  ret ptr %14
}